target datalayout = "e-m:e-p270:32:32-p271:32:32-p272:64:64-i64:64-i128:128-f80:128-n8:16:32:64-S128"
target triple = "x86_64-pc-linux-gnu"

%struct.RTMPContext = type { ptr, ptr, [2 x ptr], [2 x i32], i32, i32, i32, ptr, i32, ptr, ptr, i32, i32, ptr, i32, i32, i32, %struct.RTMPPacket, i32, i64, i64, i32, i32, i32, i32, i32, [11 x i8], i32, i32, ptr, ptr, ptr, i32, i32, ptr, ptr, [42 x i8], ptr, ptr, i32, i32, i32, i32, ptr, i32, i32, i32, i32, i32, double, i32, ptr, [50 x i8], [50 x i8], [500 x i8], i32, i32 }
%struct.RTMPPacket = type { i32, i32, i32, i32, i32, ptr, i32, i32, i32 }

@.str.154 = private unnamed_addr constant [6 x i8] c"adobe\00", align 1
@.str.155 = private unnamed_addr constant [5 x i8] c"%08x\00", align 1
@.str.156 = private unnamed_addr constant [45 x i8] c"?authmod=%s&user=%s&challenge=%s&response=%s\00", align 1
@.str.157 = private unnamed_addr constant [11 x i8] c"&opaque=%s\00", align 1

; Function Attrs: nounwind uwtable
define internal i32 @do_adobe_auth(ptr noundef %0, ptr noundef %1, ptr noundef %2, ptr noundef %3, ptr noundef %4) #0 {
  %6 = alloca i32, align 4
  %7 = alloca ptr, align 8
  %8 = alloca ptr, align 8
  %9 = alloca ptr, align 8
  %10 = alloca ptr, align 8
  %11 = alloca ptr, align 8
  %12 = alloca [16 x i8], align 16
  %13 = alloca [25 x i8], align 16
  %14 = alloca [10 x i8], align 1
  %15 = alloca ptr, align 8
  %16 = alloca i32, align 4
  store ptr %0, ptr %7, align 8, !tbaa !22
  store ptr %1, ptr %8, align 8, !tbaa !9
  store ptr %2, ptr %9, align 8, !tbaa !9
  store ptr %3, ptr %10, align 8, !tbaa !9
  store ptr %4, ptr %11, align 8, !tbaa !9
  call void @llvm.lifetime.start.p0(i64 16, ptr %12) #12
  call void @llvm.lifetime.start.p0(i64 25, ptr %13) #12
  call void @llvm.lifetime.start.p0(i64 10, ptr %14) #12
  call void @llvm.lifetime.start.p0(i64 8, ptr %15) #12
  %17 = call ptr @av_md5_alloc()
  store ptr %17, ptr %15, align 8, !tbaa !144
  %18 = load ptr, ptr %15, align 8, !tbaa !144
  %19 = icmp ne ptr %18, null
  br i1 %19, label %21, label %20

20:                                               ; preds = %5
  store i32 -12, ptr %6, align 4
  store i32 1, ptr %16, align 4
  br label %95

21:                                               ; preds = %5
  %22 = getelementptr inbounds [10 x i8], ptr %14, i64 0, i64 0
  %23 = call i32 @av_get_random_seed()
  %24 = call i32 (ptr, i64, ptr, ...) @snprintf(ptr noundef %22, i64 noundef 10, ptr noundef @.str.155, i32 noundef %23) #12
  %25 = load ptr, ptr %15, align 8, !tbaa !144
  call void @av_md5_init(ptr noundef %25)
  %26 = load ptr, ptr %15, align 8, !tbaa !144
  %27 = load ptr, ptr %8, align 8, !tbaa !9
  %28 = load ptr, ptr %8, align 8, !tbaa !9
  %29 = call i64 @strlen(ptr noundef %28) #13
  call void @av_md5_update(ptr noundef %26, ptr noundef %27, i64 noundef %29)
  %30 = load ptr, ptr %15, align 8, !tbaa !144
  %31 = load ptr, ptr %9, align 8, !tbaa !9
  %32 = load ptr, ptr %9, align 8, !tbaa !9
  %33 = call i64 @strlen(ptr noundef %32) #13
  call void @av_md5_update(ptr noundef %30, ptr noundef %31, i64 noundef %33)
  %34 = load ptr, ptr %15, align 8, !tbaa !144
  %35 = load ptr, ptr %7, align 8, !tbaa !22
  %36 = getelementptr inbounds nuw %struct.RTMPContext, ptr %35, i32 0, i32 53
  %37 = getelementptr inbounds [50 x i8], ptr %36, i64 0, i64 0
  %38 = load ptr, ptr %7, align 8, !tbaa !22
  %39 = getelementptr inbounds nuw %struct.RTMPContext, ptr %38, i32 0, i32 53
  %40 = getelementptr inbounds [50 x i8], ptr %39, i64 0, i64 0
  %41 = call i64 @strlen(ptr noundef %40) #13
  call void @av_md5_update(ptr noundef %34, ptr noundef %37, i64 noundef %41)
  %42 = load ptr, ptr %15, align 8, !tbaa !144
  %43 = getelementptr inbounds [16 x i8], ptr %12, i64 0, i64 0
  call void @av_md5_final(ptr noundef %42, ptr noundef %43)
  %44 = getelementptr inbounds [25 x i8], ptr %13, i64 0, i64 0
  %45 = getelementptr inbounds [16 x i8], ptr %12, i64 0, i64 0
  %46 = call ptr @av_base64_encode(ptr noundef %44, i32 noundef 25, ptr noundef %45, i32 noundef 16)
  %47 = load ptr, ptr %15, align 8, !tbaa !144
  call void @av_md5_init(ptr noundef %47)
  %48 = load ptr, ptr %15, align 8, !tbaa !144
  %49 = getelementptr inbounds [25 x i8], ptr %13, i64 0, i64 0
  %50 = getelementptr inbounds [25 x i8], ptr %13, i64 0, i64 0
  %51 = call i64 @strlen(ptr noundef %50) #13
  call void @av_md5_update(ptr noundef %48, ptr noundef %49, i64 noundef %51)
  %52 = load ptr, ptr %10, align 8, !tbaa !9
  %53 = icmp ne ptr %52, null
  br i1 %53, label %54, label %59

54:                                               ; preds = %21
  %55 = load ptr, ptr %15, align 8, !tbaa !144
  %56 = load ptr, ptr %10, align 8, !tbaa !9
  %57 = load ptr, ptr %10, align 8, !tbaa !9
  %58 = call i64 @strlen(ptr noundef %57) #13
  call void @av_md5_update(ptr noundef %55, ptr noundef %56, i64 noundef %58)
  br label %68

59:                                               ; preds = %21
  %60 = load ptr, ptr %11, align 8, !tbaa !9
  %61 = icmp ne ptr %60, null
  br i1 %61, label %62, label %67

62:                                               ; preds = %59
  %63 = load ptr, ptr %15, align 8, !tbaa !144
  %64 = load ptr, ptr %11, align 8, !tbaa !9
  %65 = load ptr, ptr %11, align 8, !tbaa !9
  %66 = call i64 @strlen(ptr noundef %65) #13
  call void @av_md5_update(ptr noundef %63, ptr noundef %64, i64 noundef %66)
  br label %67

67:                                               ; preds = %62, %59
  br label %68

68:                                               ; preds = %67, %54
  %69 = load ptr, ptr %15, align 8, !tbaa !144
  %70 = getelementptr inbounds [10 x i8], ptr %14, i64 0, i64 0
  %71 = getelementptr inbounds [10 x i8], ptr %14, i64 0, i64 0
  %72 = call i64 @strlen(ptr noundef %71) #13
  call void @av_md5_update(ptr noundef %69, ptr noundef %70, i64 noundef %72)
  %73 = load ptr, ptr %15, align 8, !tbaa !144
  %74 = getelementptr inbounds [16 x i8], ptr %12, i64 0, i64 0
  call void @av_md5_final(ptr noundef %73, ptr noundef %74)
  %75 = getelementptr inbounds [25 x i8], ptr %13, i64 0, i64 0
  %76 = getelementptr inbounds [16 x i8], ptr %12, i64 0, i64 0
  %77 = call ptr @av_base64_encode(ptr noundef %75, i32 noundef 25, ptr noundef %76, i32 noundef 16)
  %78 = load ptr, ptr %7, align 8, !tbaa !22
  %79 = getelementptr inbounds nuw %struct.RTMPContext, ptr %78, i32 0, i32 54
  %80 = getelementptr inbounds [500 x i8], ptr %79, i64 0, i64 0
  %81 = load ptr, ptr %8, align 8, !tbaa !9
  %82 = getelementptr inbounds [10 x i8], ptr %14, i64 0, i64 0
  %83 = getelementptr inbounds [25 x i8], ptr %13, i64 0, i64 0
  %84 = call i32 (ptr, i64, ptr, ...) @snprintf(ptr noundef %80, i64 noundef 500, ptr noundef @.str.156, ptr noundef @.str.154, ptr noundef %81, ptr noundef %82, ptr noundef %83) #12
  %85 = load ptr, ptr %10, align 8, !tbaa !9
  %86 = icmp ne ptr %85, null
  br i1 %86, label %87, label %93

87:                                               ; preds = %68
  %88 = load ptr, ptr %7, align 8, !tbaa !22
  %89 = getelementptr inbounds nuw %struct.RTMPContext, ptr %88, i32 0, i32 54
  %90 = getelementptr inbounds [500 x i8], ptr %89, i64 0, i64 0
  %91 = load ptr, ptr %10, align 8, !tbaa !9
  %92 = call i64 (ptr, i64, ptr, ...) @av_strlcatf(ptr noundef %90, i64 noundef 500, ptr noundef @.str.157, ptr noundef %91)
  br label %93

93:                                               ; preds = %87, %68
  %94 = load ptr, ptr %15, align 8, !tbaa !144
  call void @av_free(ptr noundef %94)
  store i32 0, ptr %6, align 4
  store i32 1, ptr %16, align 4
  br label %95

95:                                               ; preds = %93, %20
  call void @llvm.lifetime.end.p0(i64 8, ptr %15) #12
  call void @llvm.lifetime.end.p0(i64 10, ptr %14) #12
  call void @llvm.lifetime.end.p0(i64 25, ptr %13) #12
  call void @llvm.lifetime.end.p0(i64 16, ptr %12) #12
  %96 = load i32, ptr %6, align 4
  ret i32 %96
}