; Function Attrs: nounwind uwtable
define internal fastcc range(i32 -12, 1) i32 @do_adobe_auth(ptr noundef %0, ptr noundef %1, ptr noundef %2, ptr noundef %3, ptr noundef %4) unnamed_addr #0 {
  %6 = alloca [16 x i8], align 16
  %7 = alloca [25 x i8], align 16
  %8 = alloca [10 x i8], align 1
  call void @llvm.lifetime.start.p0(i64 16, ptr nonnull %6) #11
  call void @llvm.lifetime.start.p0(i64 25, ptr nonnull %7) #11
  call void @llvm.lifetime.start.p0(i64 10, ptr nonnull %8) #11
  %9 = tail call ptr @av_md5_alloc() #11
  %.not = icmp eq ptr %9, null
  br i1 %.not, label %29, label %10

10:                                               ; preds = %5
  %11 = tail call i32 @av_get_random_seed() #11
  %12 = call i32 (ptr, i64, ptr, ...) @snprintf(ptr noundef nonnull dereferenceable(1) %8, i64 noundef 10, ptr noundef nonnull @.str.155, i32 noundef %11) #11
  tail call void @av_md5_init(ptr noundef nonnull %9) #11
  %13 = tail call i64 @strlen(ptr noundef nonnull dereferenceable(1) %1) #12
  tail call void @av_md5_update(ptr noundef nonnull %9, ptr noundef nonnull %1, i64 noundef %13) #11
  %14 = tail call i64 @strlen(ptr noundef nonnull dereferenceable(1) %2) #12
  tail call void @av_md5_update(ptr noundef nonnull %9, ptr noundef nonnull %2, i64 noundef %14) #11
  %15 = getelementptr inbounds nuw i8, ptr %0, i64 466
  %16 = tail call i64 @strlen(ptr noundef nonnull dereferenceable(1) %15) #12
  tail call void @av_md5_update(ptr noundef nonnull %9, ptr noundef nonnull %15, i64 noundef %16) #11
  call void @av_md5_final(ptr noundef nonnull %9, ptr noundef nonnull %6) #11
  %17 = call ptr @av_base64_encode(ptr noundef nonnull %7, i32 noundef 25, ptr noundef nonnull %6, i32 noundef 16) #11
  call void @av_md5_init(ptr noundef nonnull %9) #11
  %18 = call i64 @strlen(ptr noundef nonnull dereferenceable(1) %7) #12
  call void @av_md5_update(ptr noundef nonnull %9, ptr noundef nonnull %7, i64 noundef %18) #11
  %.not33 = icmp eq ptr %3, null
  br i1 %.not33, label %19, label %.sink.split

19:                                               ; preds = %10
  %.not34 = icmp eq ptr %4, null
  br i1 %.not34, label %21, label %.sink.split

.sink.split:                                      ; preds = %19, %10
  %.sink36 = phi ptr [ %3, %10 ], [ %4, %19 ]
  %20 = call i64 @strlen(ptr noundef nonnull dereferenceable(1) %.sink36) #12
  call void @av_md5_update(ptr noundef nonnull %9, ptr noundef nonnull %.sink36, i64 noundef %20) #11
  br label %21

21:                                               ; preds = %.sink.split, %19
  %22 = call i64 @strlen(ptr noundef nonnull dereferenceable(1) %8) #12
  call void @av_md5_update(ptr noundef nonnull %9, ptr noundef nonnull %8, i64 noundef %22) #11
  call void @av_md5_final(ptr noundef nonnull %9, ptr noundef nonnull %6) #11
  %23 = call ptr @av_base64_encode(ptr noundef nonnull %7, i32 noundef 25, ptr noundef nonnull %6, i32 noundef 16) #11
  %24 = getelementptr inbounds nuw i8, ptr %0, i64 516
  %25 = call i32 (ptr, i64, ptr, ...) @snprintf(ptr noundef nonnull dereferenceable(1) %24, i64 noundef 500, ptr noundef nonnull @.str.156, ptr noundef nonnull @.str.154, ptr noundef nonnull %1, ptr noundef nonnull %8, ptr noundef nonnull %7) #11
  br i1 %.not33, label %28, label %26

26:                                               ; preds = %21
  %27 = call i64 (ptr, i64, ptr, ...) @av_strlcatf(ptr noundef nonnull %24, i64 noundef 500, ptr noundef nonnull @.str.157, ptr noundef nonnull %3) #11
  br label %28

28:                                               ; preds = %26, %21
  call void @av_free(ptr noundef nonnull %9) #11
  br label %29

29:                                               ; preds = %5, %28
  %.0 = phi i32 [ 0, %28 ], [ -12, %5 ]
  call void @llvm.lifetime.end.p0(i64 10, ptr nonnull %8) #11
  call void @llvm.lifetime.end.p0(i64 25, ptr nonnull %7) #11
  call void @llvm.lifetime.end.p0(i64 16, ptr nonnull %6) #11
  ret i32 %.0
}